; ModuleID = '5/1213.c'
source_filename = "5/1213.c"
target datalayout = "e-m:e-p270:32:32-p271:32:32-p272:64:64-i64:64-f80:128-n8:16:32:64-S128"
target triple = "x86_64-pc-linux-gnu"

@.str = private unnamed_addr constant [6 x i8] c"error\00", align 1
@.str.1 = private unnamed_addr constant [4 x i8] c"yes\00", align 1
@.str.2 = private unnamed_addr constant [3 x i8] c"no\00", align 1

; Function Attrs: noinline nounwind uwtable
define dso_local i32 @main() #0 {
  %1 = alloca i32, align 4
  %2 = alloca i32, align 4
  %3 = alloca i32, align 4
  %4 = alloca [501 x i8], align 16
  %5 = alloca [501 x i8], align 16
  %6 = alloca [10 x i8], align 1
  %7 = alloca double, align 8
  %8 = alloca double, align 8
  store i32 0, i32* %1, align 4
  store double 0.000000e+00, double* %8, align 8
  %9 = getelementptr inbounds [10 x i8], [10 x i8]* %6, i64 0, i64 0
  %10 = call i32 (i8*, ...) bitcast (i32 (...)* @gets to i32 (i8*, ...)*)(i8* %9)
  %11 = getelementptr inbounds [10 x i8], [10 x i8]* %6, i64 0, i64 0
  %12 = call double @atof(i8* %11) #3
  store double %12, double* %7, align 8
  %13 = getelementptr inbounds [501 x i8], [501 x i8]* %4, i64 0, i64 0
  %14 = call i32 (i8*, ...) bitcast (i32 (...)* @gets to i32 (i8*, ...)*)(i8* %13)
  %15 = getelementptr inbounds [501 x i8], [501 x i8]* %5, i64 0, i64 0
  %16 = call i32 (i8*, ...) bitcast (i32 (...)* @gets to i32 (i8*, ...)*)(i8* %15)
  %17 = getelementptr inbounds [501 x i8], [501 x i8]* %4, i64 0, i64 0
  %18 = call i64 @strlen(i8* %17) #3
  %19 = trunc i64 %18 to i32
  store i32 %19, i32* %3, align 4
  %20 = getelementptr inbounds [501 x i8], [501 x i8]* %4, i64 0, i64 0
  %21 = call i64 @strlen(i8* %20) #3
  %22 = getelementptr inbounds [501 x i8], [501 x i8]* %5, i64 0, i64 0
  %23 = call i64 @strlen(i8* %22) #3
  %24 = icmp ne i64 %21, %23
  br i1 %24, label %25, label %27

25:                                               ; preds = %0
  %26 = call i32 (i8*, ...) @printf(i8* getelementptr inbounds ([6 x i8], [6 x i8]* @.str, i64 0, i64 0))
  store i32 0, i32* %1, align 4
  br label %91

27:                                               ; preds = %0
  store i32 0, i32* %2, align 4
  br label %28

28:                                               ; preds = %68, %27
  %29 = load i32, i32* %2, align 4
  %30 = sext i32 %29 to i64
  %31 = getelementptr inbounds [501 x i8], [501 x i8]* %4, i64 0, i64 %30
  %32 = load i8, i8* %31, align 1
  %33 = sext i8 %32 to i32
  %34 = icmp ne i32 %33, 0
  br i1 %34, label %35, label %71

35:                                               ; preds = %28
  %36 = load i32, i32* %2, align 4
  %37 = sext i32 %36 to i64
  %38 = getelementptr inbounds [501 x i8], [501 x i8]* %4, i64 0, i64 %37
  %39 = load i8, i8* %38, align 1
  %40 = sext i8 %39 to i32
  %41 = icmp sgt i32 %40, 97
  br i1 %41, label %49, label %42

42:                                               ; preds = %35
  %43 = load i32, i32* %2, align 4
  %44 = sext i32 %43 to i64
  %45 = getelementptr inbounds [501 x i8], [501 x i8]* %5, i64 0, i64 %44
  %46 = load i8, i8* %45, align 1
  %47 = sext i8 %46 to i32
  %48 = icmp sgt i32 %47, 97
  br i1 %48, label %49, label %51

49:                                               ; preds = %42, %35
  %50 = call i32 (i8*, ...) @printf(i8* getelementptr inbounds ([6 x i8], [6 x i8]* @.str, i64 0, i64 0))
  store i32 0, i32* %1, align 4
  br label %91

51:                                               ; preds = %42
  %52 = load i32, i32* %2, align 4
  %53 = sext i32 %52 to i64
  %54 = getelementptr inbounds [501 x i8], [501 x i8]* %4, i64 0, i64 %53
  %55 = load i8, i8* %54, align 1
  %56 = sext i8 %55 to i32
  %57 = load i32, i32* %2, align 4
  %58 = sext i32 %57 to i64
  %59 = getelementptr inbounds [501 x i8], [501 x i8]* %5, i64 0, i64 %58
  %60 = load i8, i8* %59, align 1
  %61 = sext i8 %60 to i32
  %62 = icmp eq i32 %56, %61
  br i1 %62, label %63, label %66

63:                                               ; preds = %51
  %64 = load double, double* %8, align 8
  %65 = fadd double %64, 1.000000e+00
  store double %65, double* %8, align 8
  br label %66

66:                                               ; preds = %63, %51
  br label %67

67:                                               ; preds = %66
  br label %68

68:                                               ; preds = %67
  %69 = load i32, i32* %2, align 4
  %70 = add nsw i32 %69, 1
  store i32 %70, i32* %2, align 4
  br label %28

71:                                               ; preds = %28
  br label %72

72:                                               ; preds = %71
  %73 = load double, double* %7, align 8
  %74 = fcmp olt double %73, 0.000000e+00
  br i1 %74, label %75, label %77

75:                                               ; preds = %72
  %76 = call i32 (i8*, ...) @printf(i8* getelementptr inbounds ([4 x i8], [4 x i8]* @.str.1, i64 0, i64 0))
  br label %90

77:                                               ; preds = %72
  %78 = load double, double* %8, align 8
  %79 = load i32, i32* %3, align 4
  %80 = sitofp i32 %79 to double
  %81 = fmul double %80, 1.000000e+00
  %82 = fdiv double %78, %81
  %83 = load double, double* %7, align 8
  %84 = fcmp ogt double %82, %83
  br i1 %84, label %85, label %87

85:                                               ; preds = %77
  %86 = call i32 (i8*, ...) @printf(i8* getelementptr inbounds ([4 x i8], [4 x i8]* @.str.1, i64 0, i64 0))
  br label %89

87:                                               ; preds = %77
  %88 = call i32 (i8*, ...) @printf(i8* getelementptr inbounds ([3 x i8], [3 x i8]* @.str.2, i64 0, i64 0))
  br label %89

89:                                               ; preds = %87, %85
  br label %90

90:                                               ; preds = %89, %75
  store i32 0, i32* %1, align 4
  br label %91

91:                                               ; preds = %90, %49, %25
  %92 = load i32, i32* %1, align 4
  ret i32 %92
}

declare dso_local i32 @gets(...) #1

; Function Attrs: nounwind readonly
declare dso_local double @atof(i8*) #2

; Function Attrs: nounwind readonly
declare dso_local i64 @strlen(i8*) #2

declare dso_local i32 @printf(i8*, ...) #1


!llvm.module.flags = !{!0}
!llvm.ident = !{!1}

!0 = !{i32 1, !"wchar_size", i32 4}
!1 = !{!"clang version 10.0.0-4ubuntu1 "}
