; ModuleID = 'source-C-CXX/4/1213.c'
source_filename = "source-C-CXX/4/1213.c"
target datalayout = "e-m:e-p270:32:32-p271:32:32-p272:64:64-i64:64-f80:128-n8:16:32:64-S128"
target triple = "x86_64-pc-linux-gnu"

@.str = private unnamed_addr constant [6 x i8] c"error\00", align 1
@.str.1 = private unnamed_addr constant [4 x i8] c"yes\00", align 1
@.str.2 = private unnamed_addr constant [3 x i8] c"no\00", align 1

; Function Attrs: nounwind sspstrong uwtable
define dso_local i32 @main() local_unnamed_addr #0 {
  %1 = alloca [501 x i8], align 16
  %2 = alloca [501 x i8], align 16
  %3 = alloca [10 x i8], align 1
  %4 = getelementptr inbounds [501 x i8], [501 x i8]* %1, i64 0, i64 0
  call void @llvm.lifetime.start.p0i8(i64 501, i8* nonnull %4) #6
  %5 = getelementptr inbounds [501 x i8], [501 x i8]* %2, i64 0, i64 0
  call void @llvm.lifetime.start.p0i8(i64 501, i8* nonnull %5) #6
  %6 = getelementptr inbounds [10 x i8], [10 x i8]* %3, i64 0, i64 0
  call void @llvm.lifetime.start.p0i8(i64 10, i8* nonnull %6) #6
  %7 = call i32 (i8*, ...) bitcast (i32 (...)* @gets to i32 (i8*, ...)*)(i8* nonnull %6) #6
  %8 = call double @strtod(i8* nocapture nonnull %6, i8** null) #6
  %9 = call i32 (i8*, ...) bitcast (i32 (...)* @gets to i32 (i8*, ...)*)(i8* nonnull %4) #6
  %10 = call i32 (i8*, ...) bitcast (i32 (...)* @gets to i32 (i8*, ...)*)(i8* nonnull %5) #6
  %11 = call i64 @strlen(i8* noundef nonnull %4) #7
  %12 = trunc i64 %11 to i32
  %13 = call i64 @strlen(i8* noundef nonnull %5) #7
  %14 = icmp eq i64 %11, %13
  br i1 %14, label %15, label %43

15:                                               ; preds = %0
  %16 = load i8, i8* %4, align 16, !tbaa !5
  %17 = icmp eq i8 %16, 0
  br i1 %17, label %35, label %18

18:                                               ; preds = %15, %27
  %19 = phi i64 [ %31, %27 ], [ 0, %15 ]
  %20 = phi i8 [ %33, %27 ], [ %16, %15 ]
  %21 = phi double [ %30, %27 ], [ 0.000000e+00, %15 ]
  %22 = icmp sgt i8 %20, 97
  br i1 %22, label %43, label %23

23:                                               ; preds = %18
  %24 = getelementptr inbounds [501 x i8], [501 x i8]* %2, i64 0, i64 %19
  %25 = load i8, i8* %24, align 1, !tbaa !5
  %26 = icmp sgt i8 %25, 97
  br i1 %26, label %43, label %27

27:                                               ; preds = %23
  %28 = icmp eq i8 %20, %25
  %29 = fadd double %21, 1.000000e+00
  %30 = select i1 %28, double %29, double %21
  %31 = add nuw i64 %19, 1
  %32 = getelementptr inbounds [501 x i8], [501 x i8]* %1, i64 0, i64 %31
  %33 = load i8, i8* %32, align 1, !tbaa !5
  %34 = icmp eq i8 %33, 0
  br i1 %34, label %35, label %18, !llvm.loop !8

35:                                               ; preds = %27, %15
  %36 = phi double [ 0.000000e+00, %15 ], [ %30, %27 ]
  %37 = fcmp olt double %8, 0.000000e+00
  br i1 %37, label %43, label %38

38:                                               ; preds = %35
  %39 = sitofp i32 %12 to double
  %40 = fdiv double %36, %39
  %41 = fcmp ogt double %40, %8
  %42 = select i1 %41, i8* getelementptr inbounds ([4 x i8], [4 x i8]* @.str.1, i64 0, i64 0), i8* getelementptr inbounds ([3 x i8], [3 x i8]* @.str.2, i64 0, i64 0)
  br label %43

43:                                               ; preds = %18, %23, %38, %35, %0
  %44 = phi i8* [ getelementptr inbounds ([6 x i8], [6 x i8]* @.str, i64 0, i64 0), %0 ], [ getelementptr inbounds ([4 x i8], [4 x i8]* @.str.1, i64 0, i64 0), %35 ], [ %42, %38 ], [ getelementptr inbounds ([6 x i8], [6 x i8]* @.str, i64 0, i64 0), %23 ], [ getelementptr inbounds ([6 x i8], [6 x i8]* @.str, i64 0, i64 0), %18 ]
  %45 = call i32 (i8*, ...) @printf(i8* nonnull dereferenceable(1) %44)
  call void @llvm.lifetime.end.p0i8(i64 10, i8* nonnull %6) #6
  call void @llvm.lifetime.end.p0i8(i64 501, i8* nonnull %5) #6
  call void @llvm.lifetime.end.p0i8(i64 501, i8* nonnull %4) #6
  ret i32 0
}

; Function Attrs: argmemonly mustprogress nofree nosync nounwind willreturn
declare void @llvm.lifetime.start.p0i8(i64 immarg, i8* nocapture) #1

declare i32 @gets(...) local_unnamed_addr #2

; Function Attrs: argmemonly mustprogress nofree nounwind readonly willreturn
declare i64 @strlen(i8* nocapture) local_unnamed_addr #3

; Function Attrs: nofree nounwind
declare noundef i32 @printf(i8* nocapture noundef readonly, ...) local_unnamed_addr #4

; Function Attrs: argmemonly mustprogress nofree nosync nounwind willreturn
declare void @llvm.lifetime.end.p0i8(i64 immarg, i8* nocapture) #1

; Function Attrs: mustprogress nofree nounwind willreturn
declare double @strtod(i8* readonly, i8** nocapture) local_unnamed_addr #5


!llvm.module.flags = !{!0, !1, !2, !3}
!llvm.ident = !{!4}

!0 = !{i32 1, !"wchar_size", i32 4}
!1 = !{i32 7, !"PIC Level", i32 2}
!2 = !{i32 7, !"PIE Level", i32 2}
!3 = !{i32 7, !"uwtable", i32 1}
!4 = !{!"clang version 13.0.0"}
!5 = !{!6, !6, i64 0}
!6 = !{!"omnipotent char", !7, i64 0}
!7 = !{!"Simple C/C++ TBAA"}
!8 = distinct !{!8, !9}
!9 = !{!"llvm.loop.mustprogress"}
